(lp0
S'http://www.boxofficemojo.com/movies/alphabetical.htm?letter=NUM&p=.htm'
p1
aS'http://www.boxofficemojo.com/movies/alphabetical.htm?letter=A&p=.htm'
p2
aS'http://www.boxofficemojo.com/movies/alphabetical.htm?letter=B&p=.htm'
p3
aS'http://www.boxofficemojo.com/movies/alphabetical.htm?letter=C&p=.htm'
p4
aS'http://www.boxofficemojo.com/movies/alphabetical.htm?letter=D&p=.htm'
p5
aS'http://www.boxofficemojo.com/movies/alphabetical.htm?letter=E&p=.htm'
p6
aS'http://www.boxofficemojo.com/movies/alphabetical.htm?letter=F&p=.htm'
p7
aS'http://www.boxofficemojo.com/movies/alphabetical.htm?letter=G&p=.htm'
p8
aS'http://www.boxofficemojo.com/movies/alphabetical.htm?letter=H&p=.htm'
p9
aS'http://www.boxofficemojo.com/movies/alphabetical.htm?letter=I&p=.htm'
p10
aS'http://www.boxofficemojo.com/movies/alphabetical.htm?letter=J&p=.htm'
p11
aS'http://www.boxofficemojo.com/movies/alphabetical.htm?letter=K&p=.htm'
p12
aS'http://www.boxofficemojo.com/movies/alphabetical.htm?letter=L&p=.htm'
p13
aS'http://www.boxofficemojo.com/movies/alphabetical.htm?letter=M&p=.htm'
p14
aS'http://www.boxofficemojo.com/movies/alphabetical.htm?letter=N&p=.htm'
p15
aS'http://www.boxofficemojo.com/movies/alphabetical.htm?letter=O&p=.htm'
p16
aS'http://www.boxofficemojo.com/movies/alphabetical.htm?letter=P&p=.htm'
p17
aS'http://www.boxofficemojo.com/movies/alphabetical.htm?letter=Q&p=.htm'
p18
aS'http://www.boxofficemojo.com/movies/alphabetical.htm?letter=R&p=.htm'
p19
aS'http://www.boxofficemojo.com/movies/alphabetical.htm?letter=S&p=.htm'
p20
aS'http://www.boxofficemojo.com/movies/alphabetical.htm?letter=T&p=.htm'
p21
aS'http://www.boxofficemojo.com/movies/alphabetical.htm?letter=U&p=.htm'
p22
aS'http://www.boxofficemojo.com/movies/alphabetical.htm?letter=V&p=.htm'
p23
aS'http://www.boxofficemojo.com/movies/alphabetical.htm?letter=W&p=.htm'
p24
aS'http://www.boxofficemojo.com/movies/alphabetical.htm?letter=X&p=.htm'
p25
aS'http://www.boxofficemojo.com/movies/alphabetical.htm?letter=Y&p=.htm'
p26
aS'http://www.boxofficemojo.com/movies/alphabetical.htm?letter=Z&p=.htm'
p27
aS'http://www.boxofficemojo.com/movies/alphabetical.htm?letter=A&page=2&p=.htm'
p28
aS'http://www.boxofficemojo.com/movies/alphabetical.htm?letter=A&page=3&p=.htm'
p29
aS'http://www.boxofficemojo.com/movies/alphabetical.htm?letter=A&page=4&p=.htm'
p30
aS'http://www.boxofficemojo.com/movies/alphabetical.htm?letter=A&page=5&p=.htm'
p31
aS'http://www.boxofficemojo.com/movies/alphabetical.htm?letter=A&page=6&p=.htm'
p32
aS'http://www.boxofficemojo.com/movies/alphabetical.htm?letter=A&page=7&p=.htm'
p33
aS'http://www.boxofficemojo.com/movies/alphabetical.htm?letter=A&page=8&p=.htm'
p34
aS'http://www.boxofficemojo.com/movies/alphabetical.htm?letter=A&page=9&p=.htm'
p35
aS'http://www.boxofficemojo.com/movies/alphabetical.htm?letter=A&page=10&p=.htm'
p36
aS'http://www.boxofficemojo.com/movies/alphabetical.htm?letter=B&page=2&p=.htm'
p37
aS'http://www.boxofficemojo.com/movies/alphabetical.htm?letter=B&page=3&p=.htm'
p38
aS'http://www.boxofficemojo.com/movies/alphabetical.htm?letter=B&page=4&p=.htm'
p39
aS'http://www.boxofficemojo.com/movies/alphabetical.htm?letter=B&page=5&p=.htm'
p40
aS'http://www.boxofficemojo.com/movies/alphabetical.htm?letter=B&page=6&p=.htm'
p41
aS'http://www.boxofficemojo.com/movies/alphabetical.htm?letter=B&page=7&p=.htm'
p42
aS'http://www.boxofficemojo.com/movies/alphabetical.htm?letter=B&page=8&p=.htm'
p43
aS'http://www.boxofficemojo.com/movies/alphabetical.htm?letter=C&page=2&p=.htm'
p44
aS'http://www.boxofficemojo.com/movies/alphabetical.htm?letter=C&page=3&p=.htm'
p45
aS'http://www.boxofficemojo.com/movies/alphabetical.htm?letter=C&page=4&p=.htm'
p46
aS'http://www.boxofficemojo.com/movies/alphabetical.htm?letter=C&page=5&p=.htm'
p47
aS'http://www.boxofficemojo.com/movies/alphabetical.htm?letter=C&page=6&p=.htm'
p48
aS'http://www.boxofficemojo.com/movies/alphabetical.htm?letter=C&page=7&p=.htm'
p49
aS'http://www.boxofficemojo.com/movies/alphabetical.htm?letter=D&page=2&p=.htm'
p50
aS'http://www.boxofficemojo.com/movies/alphabetical.htm?letter=D&page=3&p=.htm'
p51
aS'http://www.boxofficemojo.com/movies/alphabetical.htm?letter=D&page=4&p=.htm'
p52
aS'http://www.boxofficemojo.com/movies/alphabetical.htm?letter=D&page=5&p=.htm'
p53
aS'http://www.boxofficemojo.com/movies/alphabetical.htm?letter=D&page=6&p=.htm'
p54
aS'http://www.boxofficemojo.com/movies/alphabetical.htm?letter=E&page=2&p=.htm'
p55
aS'http://www.boxofficemojo.com/movies/alphabetical.htm?letter=E&page=3&p=.htm'
p56
aS'http://www.boxofficemojo.com/movies/alphabetical.htm?letter=E&page=4&p=.htm'
p57
aS'http://www.boxofficemojo.com/movies/alphabetical.htm?letter=E&page=5&p=.htm'
p58
aS'http://www.boxofficemojo.com/movies/alphabetical.htm?letter=E&page=6&p=.htm'
p59
aS'http://www.boxofficemojo.com/movies/alphabetical.htm?letter=F&page=2&p=.htm'
p60
aS'http://www.boxofficemojo.com/movies/alphabetical.htm?letter=F&page=3&p=.htm'
p61
aS'http://www.boxofficemojo.com/movies/alphabetical.htm?letter=F&page=4&p=.htm'
p62
aS'http://www.boxofficemojo.com/movies/alphabetical.htm?letter=F&page=5&p=.htm'
p63
aS'http://www.boxofficemojo.com/movies/alphabetical.htm?letter=F&page=6&p=.htm'
p64
aS'http://www.boxofficemojo.com/movies/alphabetical.htm?letter=G&page=2&p=.htm'
p65
aS'http://www.boxofficemojo.com/movies/alphabetical.htm?letter=G&page=3&p=.htm'
p66
aS'http://www.boxofficemojo.com/movies/alphabetical.htm?letter=G&page=4&p=.htm'
p67
aS'http://www.boxofficemojo.com/movies/alphabetical.htm?letter=G&page=5&p=.htm'
p68
aS'http://www.boxofficemojo.com/movies/alphabetical.htm?letter=G&page=6&p=.htm'
p69
aS'http://www.boxofficemojo.com/movies/alphabetical.htm?letter=G&page=7&p=.htm'
p70
aS'http://www.boxofficemojo.com/movies/alphabetical.htm?letter=H&page=2&p=.htm'
p71
aS'http://www.boxofficemojo.com/movies/alphabetical.htm?letter=H&page=3&p=.htm'
p72
aS'http://www.boxofficemojo.com/movies/alphabetical.htm?letter=H&page=4&p=.htm'
p73
aS'http://www.boxofficemojo.com/movies/alphabetical.htm?letter=H&page=5&p=.htm'
p74
aS'http://www.boxofficemojo.com/movies/alphabetical.htm?letter=H&page=6&p=.htm'
p75
aS'http://www.boxofficemojo.com/movies/alphabetical.htm?letter=I&page=2&p=.htm'
p76
aS'http://www.boxofficemojo.com/movies/alphabetical.htm?letter=I&page=3&p=.htm'
p77
aS'http://www.boxofficemojo.com/movies/alphabetical.htm?letter=I&page=4&p=.htm'
p78
aS'http://www.boxofficemojo.com/movies/alphabetical.htm?letter=I&page=5&p=.htm'
p79
aS'http://www.boxofficemojo.com/movies/alphabetical.htm?letter=I&page=6&p=.htm'
p80
aS'http://www.boxofficemojo.com/movies/alphabetical.htm?letter=J&page=2&p=.htm'
p81
aS'http://www.boxofficemojo.com/movies/alphabetical.htm?letter=J&page=3&p=.htm'
p82
aS'http://www.boxofficemojo.com/movies/alphabetical.htm?letter=J&page=4&p=.htm'
p83
aS'http://www.boxofficemojo.com/movies/alphabetical.htm?letter=K&page=2&p=.htm'
p84
aS'http://www.boxofficemojo.com/movies/alphabetical.htm?letter=K&page=3&p=.htm'
p85
aS'http://www.boxofficemojo.com/movies/alphabetical.htm?letter=K&page=4&p=.htm'
p86
aS'http://www.boxofficemojo.com/movies/alphabetical.htm?letter=L&page=2&p=.htm'
p87
aS'http://www.boxofficemojo.com/movies/alphabetical.htm?letter=L&page=3&p=.htm'
p88
aS'http://www.boxofficemojo.com/movies/alphabetical.htm?letter=L&page=4&p=.htm'
p89
aS'http://www.boxofficemojo.com/movies/alphabetical.htm?letter=L&page=5&p=.htm'
p90
aS'http://www.boxofficemojo.com/movies/alphabetical.htm?letter=M&page=2&p=.htm'
p91
aS'http://www.boxofficemojo.com/movies/alphabetical.htm?letter=M&page=3&p=.htm'
p92
aS'http://www.boxofficemojo.com/movies/alphabetical.htm?letter=N&page=2&p=.htm'
p93
aS'http://www.boxofficemojo.com/movies/alphabetical.htm?letter=N&page=3&p=.htm'
p94
aS'http://www.boxofficemojo.com/movies/alphabetical.htm?letter=N&page=4&p=.htm'
p95
aS'http://www.boxofficemojo.com/movies/alphabetical.htm?letter=N&page=5&p=.htm'
p96
aS'http://www.boxofficemojo.com/movies/alphabetical.htm?letter=O&page=2&p=.htm'
p97
aS'http://www.boxofficemojo.com/movies/alphabetical.htm?letter=O&page=3&p=.htm'
p98
aS'http://www.boxofficemojo.com/movies/alphabetical.htm?letter=O&page=4&p=.htm'
p99
aS'http://www.boxofficemojo.com/movies/alphabetical.htm?letter=O&page=5&p=.htm'
p100
aS'http://www.boxofficemojo.com/movies/alphabetical.htm?letter=P&page=2&p=.htm'
p101
aS'http://www.boxofficemojo.com/movies/alphabetical.htm?letter=P&page=3&p=.htm'
p102
aS'http://www.boxofficemojo.com/movies/alphabetical.htm?letter=P&page=4&p=.htm'
p103
aS'http://www.boxofficemojo.com/movies/alphabetical.htm?letter=P&page=5&p=.htm'
p104
aS'http://www.boxofficemojo.com/movies/alphabetical.htm?letter=P&page=6&p=.htm'
p105
aS'http://www.boxofficemojo.com/movies/alphabetical.htm?letter=P&page=7&p=.htm'
p106
aS'http://www.boxofficemojo.com/movies/alphabetical.htm?letter=R&page=2&p=.htm'
p107
aS'http://www.boxofficemojo.com/movies/alphabetical.htm?letter=R&page=3&p=.htm'
p108
aS'http://www.boxofficemojo.com/movies/alphabetical.htm?letter=R&page=4&p=.htm'
p109
aS'http://www.boxofficemojo.com/movies/alphabetical.htm?letter=R&page=5&p=.htm'
p110
aS'http://www.boxofficemojo.com/movies/alphabetical.htm?letter=R&page=6&p=.htm'
p111
aS'http://www.boxofficemojo.com/movies/alphabetical.htm?letter=S&page=2&p=.htm'
p112
aS'http://www.boxofficemojo.com/movies/alphabetical.htm?letter=S&page=3&p=.htm'
p113
aS'http://www.boxofficemojo.com/movies/alphabetical.htm?letter=S&page=4&p=.htm'
p114
aS'http://www.boxofficemojo.com/movies/alphabetical.htm?letter=S&page=5&p=.htm'
p115
aS'http://www.boxofficemojo.com/movies/alphabetical.htm?letter=S&page=6&p=.htm'
p116
aS'http://www.boxofficemojo.com/movies/alphabetical.htm?letter=S&page=7&p=.htm'
p117
aS'http://www.boxofficemojo.com/movies/alphabetical.htm?letter=S&page=8&p=.htm'
p118
aS'http://www.boxofficemojo.com/movies/alphabetical.htm?letter=S&page=9&p=.htm'
p119
aS'http://www.boxofficemojo.com/movies/alphabetical.htm?letter=S&page=10&p=.htm'
p120
aS'http://www.boxofficemojo.com/movies/alphabetical.htm?letter=S&page=11&p=.htm'
p121
aS'http://www.boxofficemojo.com/movies/alphabetical.htm?letter=S&page=12&p=.htm'
p122
aS'http://www.boxofficemojo.com/movies/alphabetical.htm?letter=S&page=13&p=.htm'
p123
aS'http://www.boxofficemojo.com/movies/alphabetical.htm?letter=T&page=2&p=.htm'
p124
aS'http://www.boxofficemojo.com/movies/alphabetical.htm?letter=T&page=3&p=.htm'
p125
aS'http://www.boxofficemojo.com/movies/alphabetical.htm?letter=T&page=4&p=.htm'
p126
aS'http://www.boxofficemojo.com/movies/alphabetical.htm?letter=T&page=5&p=.htm'
p127
aS'http://www.boxofficemojo.com/movies/alphabetical.htm?letter=T&page=6&p=.htm'
p128
aS'http://www.boxofficemojo.com/movies/alphabetical.htm?letter=T&page=7&p=.htm'
p129
aS'http://www.boxofficemojo.com/movies/alphabetical.htm?letter=T&page=8&p=.htm'
p130
aS'http://www.boxofficemojo.com/movies/alphabetical.htm?letter=U&page=2&p=.htm'
p131
aS'http://www.boxofficemojo.com/movies/alphabetical.htm?letter=V&page=2&p=.htm'
p132
aS'http://www.boxofficemojo.com/movies/alphabetical.htm?letter=V&page=3&p=.htm'
p133
aS'http://www.boxofficemojo.com/movies/alphabetical.htm?letter=W&page=2&p=.htm'
p134
aS'http://www.boxofficemojo.com/movies/alphabetical.htm?letter=W&page=3&p=.htm'
p135
aS'http://www.boxofficemojo.com/movies/alphabetical.htm?letter=W&page=4&p=.htm'
p136
aS'http://www.boxofficemojo.com/movies/alphabetical.htm?letter=W&page=5&p=.htm'
p137
aS'http://www.boxofficemojo.com/movies/alphabetical.htm?letter=W&page=6&p=.htm'
p138
aS'http://www.boxofficemojo.com/movies/alphabetical.htm?letter=Y&page=2&p=.htm'
p139
aS'http://www.boxofficemojo.com/movies/alphabetical.htm?letter=Z&page=2&p=.htm'
p140
a.